target datalayout = "e-m:e-p270:32:32-p271:32:32-p272:64:64-i64:64-i128:128-f80:128-n8:16:32:64-S128"
target triple = "x86_64-pc-linux-gnu"

@_mi_numa_node_count = external hidden global i64, align 8

; Function Attrs: nounwind uwtable
define hidden i32 @mi_reserve_huge_os_pages_at(i64 noundef %0, i32 noundef %1, i64 noundef %2) #0 {
  %4 = alloca i64, align 8
  %5 = alloca i32, align 4
  %6 = alloca i64, align 8
  store i64 %0, ptr %4, align 8, !tbaa !15
  store i32 %1, ptr %5, align 4, !tbaa !52
  store i64 %2, ptr %6, align 8, !tbaa !15
  %7 = load i64, ptr %4, align 8, !tbaa !15
  %8 = load i32, ptr %5, align 4, !tbaa !52
  %9 = load i64, ptr %6, align 8, !tbaa !15
  %10 = call i32 @mi_reserve_huge_os_pages_at_ex(i64 noundef %7, i32 noundef %8, i64 noundef %9, i1 noundef zeroext false, ptr noundef null) #12
  ret i32 %10
}

; Function Attrs: inlinehint nounwind uwtable
define internal i64 @_mi_os_numa_node_count() #4 {
  %1 = alloca i64, align 8
  %2 = alloca i64, align 8
  %3 = alloca i64, align 8
  %4 = alloca i32, align 4
  call void @llvm.lifetime.start.p0(i64 8, ptr %2) #13
  %5 = load atomic i64, ptr @_mi_numa_node_count monotonic, align 8
  store i64 %5, ptr %3, align 8
  %6 = load i64, ptr %3, align 8, !tbaa !15
  store i64 %6, ptr %2, align 8, !tbaa !15
  %7 = load i64, ptr %2, align 8, !tbaa !15
  %8 = icmp ugt i64 %7, 0
  %9 = xor i1 %8, true
  %10 = xor i1 %9, true
  %11 = zext i1 %10 to i32
  %12 = sext i32 %11 to i64
  %13 = call i64 @llvm.expect.i64(i64 %12, i64 1)
  %14 = icmp ne i64 %13, 0
  br i1 %14, label %15, label %17

15:                                               ; preds = %0
  %16 = load i64, ptr %2, align 8, !tbaa !15
  store i64 %16, ptr %1, align 8
  store i32 1, ptr %4, align 4
  br label %19

17:                                               ; preds = %0
  %18 = call i64 @_mi_os_numa_node_count_get() #12
  store i64 %18, ptr %1, align 8
  store i32 1, ptr %4, align 4
  br label %19

19:                                               ; preds = %17, %15
  call void @llvm.lifetime.end.p0(i64 8, ptr %2) #13
  %20 = load i64, ptr %1, align 8
  ret i64 %20
}

; Function Attrs: nounwind uwtable
define hidden i32 @mi_reserve_huge_os_pages_interleave(i64 noundef %0, i64 noundef %1, i64 noundef %2) #0 {
  %4 = alloca i32, align 4
  %5 = alloca i64, align 8
  %6 = alloca i64, align 8
  %7 = alloca i64, align 8
  %8 = alloca i64, align 8
  %9 = alloca i64, align 8
  %10 = alloca i64, align 8
  %11 = alloca i64, align 8
  %12 = alloca i64, align 8
  %13 = alloca i32, align 4
  %14 = alloca i64, align 8
  %15 = alloca i32, align 4
  store i64 %0, ptr %5, align 8, !tbaa !15
  store i64 %1, ptr %6, align 8, !tbaa !15
  store i64 %2, ptr %7, align 8, !tbaa !15
  %16 = load i64, ptr %5, align 8, !tbaa !15
  %17 = icmp eq i64 %16, 0
  br i1 %17, label %18, label %19

18:                                               ; preds = %3
  store i32 0, ptr %4, align 4
  br label %96

19:                                               ; preds = %3
  call void @llvm.lifetime.start.p0(i64 8, ptr %8) #13
  %20 = load i64, ptr %6, align 8, !tbaa !15
  %21 = icmp ugt i64 %20, 0
  br i1 %21, label %22, label %24

22:                                               ; preds = %19
  %23 = load i64, ptr %6, align 8, !tbaa !15
  br label %26

24:                                               ; preds = %19
  %25 = call i64 @_mi_os_numa_node_count() #12
  br label %26

26:                                               ; preds = %24, %22
  %27 = phi i64 [ %23, %22 ], [ %25, %24 ]
  store i64 %27, ptr %8, align 8, !tbaa !15
  %28 = load i64, ptr %8, align 8, !tbaa !15
  %29 = icmp ule i64 %28, 0
  br i1 %29, label %30, label %31

30:                                               ; preds = %26
  store i64 1, ptr %8, align 8, !tbaa !15
  br label %31

31:                                               ; preds = %30, %26
  call void @llvm.lifetime.start.p0(i64 8, ptr %9) #13
  %32 = load i64, ptr %5, align 8, !tbaa !15
  %33 = load i64, ptr %8, align 8, !tbaa !15
  %34 = udiv i64 %32, %33
  store i64 %34, ptr %9, align 8, !tbaa !15
  call void @llvm.lifetime.start.p0(i64 8, ptr %10) #13
  %35 = load i64, ptr %5, align 8, !tbaa !15
  %36 = load i64, ptr %8, align 8, !tbaa !15
  %37 = urem i64 %35, %36
  store i64 %37, ptr %10, align 8, !tbaa !15
  call void @llvm.lifetime.start.p0(i64 8, ptr %11) #13
  %38 = load i64, ptr %7, align 8, !tbaa !15
  %39 = icmp eq i64 %38, 0
  br i1 %39, label %40, label %41

40:                                               ; preds = %31
  br label %46

41:                                               ; preds = %31
  %42 = load i64, ptr %7, align 8, !tbaa !15
  %43 = load i64, ptr %8, align 8, !tbaa !15
  %44 = udiv i64 %42, %43
  %45 = add i64 %44, 50
  br label %46

46:                                               ; preds = %41, %40
  %47 = phi i64 [ 0, %40 ], [ %45, %41 ]
  store i64 %47, ptr %11, align 8, !tbaa !15
  call void @llvm.lifetime.start.p0(i64 8, ptr %12) #13
  store i64 0, ptr %12, align 8, !tbaa !15
  br label %48

48:                                               ; preds = %89, %46
  %49 = load i64, ptr %12, align 8, !tbaa !15
  %50 = load i64, ptr %8, align 8, !tbaa !15
  %51 = icmp ult i64 %49, %50
  br i1 %51, label %52, label %55

52:                                               ; preds = %48
  %53 = load i64, ptr %5, align 8, !tbaa !15
  %54 = icmp ugt i64 %53, 0
  br label %55

55:                                               ; preds = %52, %48
  %56 = phi i1 [ false, %48 ], [ %54, %52 ]
  br i1 %56, label %58, label %57

57:                                               ; preds = %55
  store i32 2, ptr %13, align 4
  br label %92

58:                                               ; preds = %55
  call void @llvm.lifetime.start.p0(i64 8, ptr %14) #13
  %59 = load i64, ptr %9, align 8, !tbaa !15
  store i64 %59, ptr %14, align 8, !tbaa !15
  %60 = load i64, ptr %12, align 8, !tbaa !15
  %61 = load i64, ptr %10, align 8, !tbaa !15
  %62 = icmp ult i64 %60, %61
  br i1 %62, label %63, label %66

63:                                               ; preds = %58
  %64 = load i64, ptr %14, align 8, !tbaa !15
  %65 = add i64 %64, 1
  store i64 %65, ptr %14, align 8, !tbaa !15
  br label %66

66:                                               ; preds = %63, %58
  call void @llvm.lifetime.start.p0(i64 4, ptr %15) #13
  %67 = load i64, ptr %14, align 8, !tbaa !15
  %68 = load i64, ptr %12, align 8, !tbaa !15
  %69 = trunc i64 %68 to i32
  %70 = load i64, ptr %11, align 8, !tbaa !15
  %71 = call i32 @mi_reserve_huge_os_pages_at(i64 noundef %67, i32 noundef %69, i64 noundef %70) #12
  store i32 %71, ptr %15, align 4, !tbaa !52
  %72 = load i32, ptr %15, align 4, !tbaa !52
  %73 = icmp ne i32 %72, 0
  br i1 %73, label %74, label %76

74:                                               ; preds = %66
  %75 = load i32, ptr %15, align 4, !tbaa !52
  store i32 %75, ptr %4, align 4
  store i32 1, ptr %13, align 4
  br label %86

76:                                               ; preds = %66
  %77 = load i64, ptr %5, align 8, !tbaa !15
  %78 = load i64, ptr %14, align 8, !tbaa !15
  %79 = icmp ult i64 %77, %78
  br i1 %79, label %80, label %81

80:                                               ; preds = %76
  store i64 0, ptr %5, align 8, !tbaa !15
  br label %85

81:                                               ; preds = %76
  %82 = load i64, ptr %14, align 8, !tbaa !15
  %83 = load i64, ptr %5, align 8, !tbaa !15
  %84 = sub i64 %83, %82
  store i64 %84, ptr %5, align 8, !tbaa !15
  br label %85

85:                                               ; preds = %81, %80
  store i32 0, ptr %13, align 4
  br label %86

86:                                               ; preds = %85, %74
  call void @llvm.lifetime.end.p0(i64 4, ptr %15) #13
  call void @llvm.lifetime.end.p0(i64 8, ptr %14) #13
  %87 = load i32, ptr %13, align 4
  switch i32 %87, label %92 [
    i32 0, label %88
  ]

88:                                               ; preds = %86
  br label %89

89:                                               ; preds = %88
  %90 = load i64, ptr %12, align 8, !tbaa !15
  %91 = add i64 %90, 1
  store i64 %91, ptr %12, align 8, !tbaa !15
  br label %48, !llvm.loop !94

92:                                               ; preds = %86, %57
  call void @llvm.lifetime.end.p0(i64 8, ptr %12) #13
  %93 = load i32, ptr %13, align 4
  switch i32 %93, label %95 [
    i32 2, label %94
  ]

94:                                               ; preds = %92
  store i32 0, ptr %4, align 4
  store i32 1, ptr %13, align 4
  br label %95

95:                                               ; preds = %94, %92
  call void @llvm.lifetime.end.p0(i64 8, ptr %11) #13
  call void @llvm.lifetime.end.p0(i64 8, ptr %10) #13
  call void @llvm.lifetime.end.p0(i64 8, ptr %9) #13
  call void @llvm.lifetime.end.p0(i64 8, ptr %8) #13
  br label %96

96:                                               ; preds = %95, %18
  %97 = load i32, ptr %4, align 4
  ret i32 %97
}