; Function Attrs: nounwind uwtable
define hidden range(i32 0, 13) i32 @mi_reserve_huge_os_pages_interleave(i64 noundef %0, i64 noundef %1, i64 noundef %2) local_unnamed_addr #0 {
  %4 = icmp eq i64 %0, 0
  br i1 %4, label %.loopexit, label %5

5:                                                ; preds = %3
  %.not = icmp eq i64 %1, 0
  br i1 %.not, label %6, label %_mi_os_numa_node_count.exit

6:                                                ; preds = %5
  %7 = load atomic i64, ptr @_mi_numa_node_count monotonic, align 8
  %.not.i = icmp eq i64 %7, 0
  br i1 %.not.i, label %8, label %_mi_os_numa_node_count.exit, !prof !89

8:                                                ; preds = %6
  %9 = tail call i64 @_mi_os_numa_node_count_get() #20
  br label %_mi_os_numa_node_count.exit

_mi_os_numa_node_count.exit:                      ; preds = %8, %6, %5
  %10 = phi i64 [ %1, %5 ], [ %9, %8 ], [ %7, %6 ]
  %spec.store.select = tail call i64 @llvm.umax.i64(i64 %10, i64 1)
  %11 = udiv i64 %0, %spec.store.select
  %12 = urem i64 %0, %spec.store.select
  %13 = icmp eq i64 %2, 0
  br i1 %13, label %17, label %14

14:                                               ; preds = %_mi_os_numa_node_count.exit
  %15 = udiv i64 %2, %spec.store.select
  %16 = add i64 %15, 50
  br label %17

17:                                               ; preds = %_mi_os_numa_node_count.exit, %14
  %18 = phi i64 [ %16, %14 ], [ 0, %_mi_os_numa_node_count.exit ]
  br label %19

19:                                               ; preds = %17, %24
  %.03549 = phi i64 [ 0, %17 ], [ %25, %24 ]
  %.03648 = phi i64 [ %0, %17 ], [ %.238, %24 ]
  %20 = icmp ult i64 %.03549, %12
  %21 = zext i1 %20 to i64
  %spec.select = add i64 %11, %21
  %22 = trunc i64 %.03549 to i32
  %23 = tail call range(i32 0, 13) i32 @mi_reserve_huge_os_pages_at_ex(i64 noundef %spec.select, i32 noundef %22, i64 noundef %18, i1 noundef zeroext false, ptr noundef null) #19
  %.not43 = icmp eq i32 %23, 0
  br i1 %.not43, label %24, label %.loopexit

24:                                               ; preds = %19
  %.238 = tail call i64 @llvm.usub.sat.i64(i64 %.03648, i64 %spec.select)
  %25 = add nuw i64 %.03549, 1
  %26 = icmp ule i64 %10, %25
  %27 = icmp ule i64 %.03648, %spec.select
  %.not46 = select i1 %26, i1 true, i1 %27
  br i1 %.not46, label %.loopexit, label %19, !llvm.loop !90

.loopexit:                                        ; preds = %19, %24, %3
  %.0 = phi i32 [ 0, %3 ], [ 0, %24 ], [ %23, %19 ]
  ret i32 %.0
}